; Function Attrs: mustprogress uwtable
define hidden noundef ptr @_Z11luaH_setnumP9lua_StateP8LuaTablei(ptr noundef %0, ptr noundef %1, i32 noundef %2) local_unnamed_addr #0 {
  %4 = alloca %struct.lua_TValue, align 8
  %5 = add nsw i32 %2, -1
  %6 = getelementptr inbounds nuw i8, ptr %1, i64 8
  %7 = load i32, ptr %6, align 8, !tbaa !9
  %8 = icmp ult i32 %5, %7
  br i1 %8, label %9, label %14

9:                                                ; preds = %3
  %10 = getelementptr inbounds nuw i8, ptr %1, i64 24
  %11 = load ptr, ptr %10, align 8, !tbaa !20
  %12 = sext i32 %5 to i64
  %13 = getelementptr inbounds %struct.lua_TValue, ptr %11, i64 %12
  br label %55

14:                                               ; preds = %3
  %15 = getelementptr inbounds nuw i8, ptr %1, i64 32
  %16 = load ptr, ptr %15, align 8, !tbaa !17
  %.not.i = icmp eq ptr %16, @luaH_dummynode
  %.pre = sitofp i32 %2 to double
  br i1 %.not.i, label %_Z11luaH_getnumP8LuaTablei.exit.thread, label %17

17:                                               ; preds = %14
  %18 = getelementptr i8, ptr %1, i64 6
  %.val.i = load i8, ptr %18, align 2, !tbaa !22
  %19 = bitcast double %.pre to i64
  %.0.extract.trunc.i.i = trunc i64 %19 to i32
  %.4.extract.shift.i.i = lshr i64 %19, 32
  %.4.extract.trunc.i.i = trunc nuw i64 %.4.extract.shift.i.i to i32
  %20 = and i32 %.4.extract.trunc.i.i, 2147483647
  %21 = lshr i32 %20, 18
  %22 = xor i32 %21, %.0.extract.trunc.i.i
  %23 = mul i32 %22, 1540483477
  %24 = lshr i32 %23, 22
  %25 = xor i32 %24, %20
  %26 = mul i32 %25, 1540483477
  %27 = lshr i32 %26, 17
  %28 = xor i32 %27, %23
  %29 = mul i32 %28, 1540483477
  %30 = lshr i32 %29, 19
  %31 = xor i32 %30, %26
  %32 = mul i32 %31, 1540483477
  %33 = zext nneg i8 %.val.i to i32
  %notmask.i.i = shl nsw i32 -1, %33
  %34 = xor i32 %notmask.i.i, -1
  %35 = and i32 %32, %34
  %36 = zext nneg i32 %35 to i64
  %37 = getelementptr inbounds nuw %struct.LuaNode, ptr %16, i64 %36
  br label %38

38:                                               ; preds = %49, %17
  %.0.i = phi ptr [ %37, %17 ], [ %52, %49 ]
  %39 = getelementptr inbounds nuw i8, ptr %.0.i, i64 28
  %40 = load i32, ptr %39, align 4
  %41 = and i32 %40, 15
  %42 = icmp eq i32 %41, 3
  br i1 %42, label %43, label %47

43:                                               ; preds = %38
  %44 = getelementptr inbounds nuw i8, ptr %.0.i, i64 16
  %45 = load double, ptr %44, align 8, !tbaa !16
  %46 = fcmp oeq double %45, %.pre
  br i1 %46, label %_Z11luaH_getnumP8LuaTablei.exit, label %47

47:                                               ; preds = %43, %38
  %48 = icmp ult i32 %40, 16
  br i1 %48, label %_Z11luaH_getnumP8LuaTablei.exit.thread, label %49

49:                                               ; preds = %47
  %50 = ashr i32 %40, 4
  %51 = sext i32 %50 to i64
  %52 = getelementptr inbounds %struct.LuaNode, ptr %.0.i, i64 %51
  br label %38, !llvm.loop !28

_Z11luaH_getnumP8LuaTablei.exit:                  ; preds = %43
  %.not = icmp eq ptr %.0.i, @luaO_nilobject_
  br i1 %.not, label %_Z11luaH_getnumP8LuaTablei.exit.thread, label %55

_Z11luaH_getnumP8LuaTablei.exit.thread:           ; preds = %47, %14, %_Z11luaH_getnumP8LuaTablei.exit
  call void @llvm.lifetime.start.p0(i64 16, ptr nonnull %4) #11
  store double %.pre, ptr %4, align 8, !tbaa !16
  %53 = getelementptr inbounds nuw i8, ptr %4, i64 12
  store i32 3, ptr %53, align 4, !tbaa !4
  %54 = call fastcc noundef ptr @_ZL6newkeyP9lua_StateP8LuaTablePK10lua_TValue(ptr noundef %0, ptr noundef %1, ptr noundef nonnull %4)
  call void @llvm.lifetime.end.p0(i64 16, ptr nonnull %4) #11
  br label %55

55:                                               ; preds = %_Z11luaH_getnumP8LuaTablei.exit.thread, %_Z11luaH_getnumP8LuaTablei.exit, %9
  %.0 = phi ptr [ %13, %9 ], [ %54, %_Z11luaH_getnumP8LuaTablei.exit.thread ], [ %.0.i, %_Z11luaH_getnumP8LuaTablei.exit ]
  ret ptr %.0
}